; Function Attrs: mustprogress uwtable
define void @_ZN6google8protobuf2io25CopyingInputStreamAdaptor6BackUpEi(ptr nocapture noundef nonnull align 8 dereferenceable(52) %0, i32 noundef %1) unnamed_addr #5 align 2 personality ptr @__gxx_personality_v0 {
  %3 = alloca %"class.google::protobuf::internal::LogMessage", align 8
  %4 = alloca %"class.google::protobuf::internal::LogFinisher", align 1
  %5 = alloca %"class.google::protobuf::internal::LogMessage", align 8
  %6 = alloca %"class.google::protobuf::internal::LogFinisher", align 1
  %7 = alloca %"class.google::protobuf::internal::LogMessage", align 8
  %8 = alloca %"class.google::protobuf::internal::LogFinisher", align 1
  %9 = getelementptr inbounds i8, ptr %0, i64 48
  %10 = load i32, ptr %9, align 8
  %11 = icmp ne i32 %10, 0
  %12 = getelementptr inbounds i8, ptr %0, i64 32
  %13 = load ptr, ptr %12, align 8
  %.not = icmp eq ptr %13, null
  %or.cond = select i1 %11, i1 true, i1 %.not
  br i1 %or.cond, label %14, label %.critedge

14:                                               ; preds = %2
  call void @_ZN6google8protobuf8internal10LogMessageC1ENS0_8LogLevelEPKci(ptr noundef nonnull align 8 dereferenceable(56) %3, i32 noundef 3, ptr noundef nonnull @.str, i32 noundef 248)
  %15 = invoke noundef nonnull align 8 dereferenceable(56) ptr @_ZN6google8protobuf8internal10LogMessagelsEPKc(ptr noundef nonnull align 8 dereferenceable(56) %3, ptr noundef nonnull @.str.7)
          to label %16 unwind label %35

16:                                               ; preds = %14
  %17 = invoke noundef nonnull align 8 dereferenceable(56) ptr @_ZN6google8protobuf8internal10LogMessagelsEPKc(ptr noundef nonnull align 8 dereferenceable(56) %15, ptr noundef nonnull @.str.8)
          to label %18 unwind label %35

18:                                               ; preds = %16
  invoke void @_ZN6google8protobuf8internal11LogFinisheraSERNS1_10LogMessageE(ptr noundef nonnull align 1 dereferenceable(1) %4, ptr noundef nonnull align 8 dereferenceable(56) %17)
          to label %19 unwind label %35

19:                                               ; preds = %18
  call void @_ZN6google8protobuf8internal10LogMessageD1Ev(ptr noundef nonnull align 8 dereferenceable(56) %3) #16
  br label %.critedge

.critedge:                                        ; preds = %2, %19
  %20 = getelementptr inbounds i8, ptr %0, i64 44
  %21 = load i32, ptr %20, align 4
  %.not15 = icmp slt i32 %21, %1
  br i1 %.not15, label %22, label %.critedge18

22:                                               ; preds = %.critedge
  call void @_ZN6google8protobuf8internal10LogMessageC1ENS0_8LogLevelEPKci(ptr noundef nonnull align 8 dereferenceable(56) %5, i32 noundef 3, ptr noundef nonnull @.str, i32 noundef 250)
  %23 = invoke noundef nonnull align 8 dereferenceable(56) ptr @_ZN6google8protobuf8internal10LogMessagelsEPKc(ptr noundef nonnull align 8 dereferenceable(56) %5, ptr noundef nonnull @.str.9)
          to label %24 unwind label %37

24:                                               ; preds = %22
  %25 = invoke noundef nonnull align 8 dereferenceable(56) ptr @_ZN6google8protobuf8internal10LogMessagelsEPKc(ptr noundef nonnull align 8 dereferenceable(56) %23, ptr noundef nonnull @.str.10)
          to label %26 unwind label %37

26:                                               ; preds = %24
  invoke void @_ZN6google8protobuf8internal11LogFinisheraSERNS1_10LogMessageE(ptr noundef nonnull align 1 dereferenceable(1) %6, ptr noundef nonnull align 8 dereferenceable(56) %25)
          to label %27 unwind label %37

27:                                               ; preds = %26
  call void @_ZN6google8protobuf8internal10LogMessageD1Ev(ptr noundef nonnull align 8 dereferenceable(56) %5) #16
  br label %.critedge18

.critedge18:                                      ; preds = %.critedge, %27
  %28 = icmp slt i32 %1, 0
  br i1 %28, label %29, label %.critedge20

29:                                               ; preds = %.critedge18
  call void @_ZN6google8protobuf8internal10LogMessageC1ENS0_8LogLevelEPKci(ptr noundef nonnull align 8 dereferenceable(56) %7, i32 noundef 3, ptr noundef nonnull @.str, i32 noundef 253)
  %30 = invoke noundef nonnull align 8 dereferenceable(56) ptr @_ZN6google8protobuf8internal10LogMessagelsEPKc(ptr noundef nonnull align 8 dereferenceable(56) %7, ptr noundef nonnull @.str.4)
          to label %31 unwind label %39

31:                                               ; preds = %29
  %32 = invoke noundef nonnull align 8 dereferenceable(56) ptr @_ZN6google8protobuf8internal10LogMessagelsEPKc(ptr noundef nonnull align 8 dereferenceable(56) %30, ptr noundef nonnull @.str.11)
          to label %33 unwind label %39

33:                                               ; preds = %31
  invoke void @_ZN6google8protobuf8internal11LogFinisheraSERNS1_10LogMessageE(ptr noundef nonnull align 1 dereferenceable(1) %8, ptr noundef nonnull align 8 dereferenceable(56) %32)
          to label %34 unwind label %39

34:                                               ; preds = %33
  call void @_ZN6google8protobuf8internal10LogMessageD1Ev(ptr noundef nonnull align 8 dereferenceable(56) %7) #16
  br label %.critedge20

.critedge20:                                      ; preds = %.critedge18, %34
  store i32 %1, ptr %9, align 8
  ret void

35:                                               ; preds = %18, %16, %14
  %36 = landingpad { ptr, i32 }
          cleanup
  br label %41

37:                                               ; preds = %26, %24, %22
  %38 = landingpad { ptr, i32 }
          cleanup
  br label %41

39:                                               ; preds = %33, %31, %29
  %40 = landingpad { ptr, i32 }
          cleanup
  br label %41

41:                                               ; preds = %39, %37, %35
  %.sink = phi ptr [ %7, %39 ], [ %5, %37 ], [ %3, %35 ]
  %.pn = phi { ptr, i32 } [ %40, %39 ], [ %38, %37 ], [ %36, %35 ]
  call void @_ZN6google8protobuf8internal10LogMessageD1Ev(ptr noundef nonnull align 8 dereferenceable(56) %.sink) #16
  resume { ptr, i32 } %.pn
}